target datalayout = "e-m:e-p270:32:32-p271:32:32-p272:64:64-i64:64-i128:128-f80:128-n8:16:32:64-S128"
target triple = "x86_64-pc-linux-gnu"

%struct.evp_pkey_method_st = type { i32, i32, ptr, ptr, ptr, ptr, ptr, ptr, ptr, ptr, ptr, ptr, ptr, ptr, ptr, ptr, ptr, ptr, ptr, ptr, ptr, ptr, ptr, ptr, ptr, ptr, ptr, ptr, ptr, ptr, ptr, ptr, ptr }
%struct.RSA_PKEY_CTX = type { i32, ptr, i32, [2 x i32], i32, ptr, ptr, i32, i32, ptr, ptr, i64, i32 }
%struct.evp_pkey_ctx_st = type { i32, ptr, ptr, ptr, ptr, %union.anon, %struct.anon.4, ptr, ptr, ptr, i32, i32, ptr, ptr, ptr, ptr, ptr, i8, ptr }
%union.anon = type { %struct.anon.0 }
%struct.anon.0 = type { ptr, ptr }
%struct.anon.4 = type { ptr, ptr, i64, i8 }
%struct.rsa_st = type { i32, ptr, i32, ptr, ptr, ptr, ptr, ptr, ptr, ptr, ptr, ptr, ptr, %struct.rsa_pss_params_30_st, ptr, ptr, %struct.crypto_ex_data_st, %struct.CRYPTO_REF_COUNT, i32, ptr, ptr, ptr, ptr, ptr, ptr, i32 }
%struct.rsa_pss_params_30_st = type { i32, %struct.anon.5, i32, i32 }
%struct.anon.5 = type { i32, i32 }
%struct.crypto_ex_data_st = type { ptr, ptr }
%struct.CRYPTO_REF_COUNT = type { i32 }

@.str = private unnamed_addr constant [34 x i8] c"../openssl/crypto/rsa/rsa_pmeth.c\00", align 1
@__func__.pkey_pss_init = private unnamed_addr constant [14 x i8] c"pkey_pss_init\00", align 1

; Function Attrs: nounwind uwtable
define internal i32 @pkey_pss_init(ptr noundef %0) #0 {
  %2 = alloca i32, align 4
  %3 = alloca ptr, align 8
  %4 = alloca ptr, align 8
  %5 = alloca ptr, align 8
  %6 = alloca ptr, align 8
  %7 = alloca ptr, align 8
  %8 = alloca i32, align 4
  %9 = alloca i32, align 4
  %10 = alloca i32, align 4
  %11 = alloca i32, align 4
  store ptr %0, ptr %3, align 8, !tbaa !3
  call void @llvm.lifetime.start.p0(i64 8, ptr %4) #8
  call void @llvm.lifetime.start.p0(i64 8, ptr %5) #8
  %12 = load ptr, ptr %3, align 8, !tbaa !3
  %13 = getelementptr inbounds nuw %struct.evp_pkey_ctx_st, ptr %12, i32 0, i32 16
  %14 = load ptr, ptr %13, align 8, !tbaa !32
  store ptr %14, ptr %5, align 8, !tbaa !8
  call void @llvm.lifetime.start.p0(i64 8, ptr %6) #8
  call void @llvm.lifetime.start.p0(i64 8, ptr %7) #8
  call void @llvm.lifetime.start.p0(i64 4, ptr %8) #8
  call void @llvm.lifetime.start.p0(i64 4, ptr %9) #8
  call void @llvm.lifetime.start.p0(i64 4, ptr %10) #8
  %15 = load ptr, ptr %3, align 8, !tbaa !3
  %16 = getelementptr inbounds nuw %struct.evp_pkey_ctx_st, ptr %15, i32 0, i32 12
  %17 = load ptr, ptr %16, align 8, !tbaa !17
  %18 = getelementptr inbounds nuw %struct.evp_pkey_method_st, ptr %17, i32 0, i32 0
  %19 = load i32, ptr %18, align 8, !tbaa !26
  %20 = icmp eq i32 %19, 912
  br i1 %20, label %22, label %21

21:                                               ; preds = %1
  store i32 0, ptr %2, align 4
  store i32 1, ptr %11, align 4
  br label %75

22:                                               ; preds = %1
  %23 = load ptr, ptr %3, align 8, !tbaa !3
  %24 = getelementptr inbounds nuw %struct.evp_pkey_ctx_st, ptr %23, i32 0, i32 14
  %25 = load ptr, ptr %24, align 8, !tbaa !52
  %26 = call ptr @EVP_PKEY_get0_RSA(ptr noundef %25)
  store ptr %26, ptr %4, align 8, !tbaa !42
  %27 = load ptr, ptr %4, align 8, !tbaa !42
  %28 = getelementptr inbounds nuw %struct.rsa_st, ptr %27, i32 0, i32 14
  %29 = load ptr, ptr %28, align 8, !tbaa !57
  %30 = icmp eq ptr %29, null
  br i1 %30, label %31, label %32

31:                                               ; preds = %22
  store i32 1, ptr %2, align 4
  store i32 1, ptr %11, align 4
  br label %75

32:                                               ; preds = %22
  %33 = load ptr, ptr %4, align 8, !tbaa !42
  %34 = getelementptr inbounds nuw %struct.rsa_st, ptr %33, i32 0, i32 14
  %35 = load ptr, ptr %34, align 8, !tbaa !57
  %36 = call i32 @ossl_rsa_pss_get_param(ptr noundef %35, ptr noundef %6, ptr noundef %7, ptr noundef %8)
  %37 = icmp ne i32 %36, 0
  br i1 %37, label %39, label %38

38:                                               ; preds = %32
  store i32 0, ptr %2, align 4
  store i32 1, ptr %11, align 4
  br label %75

39:                                               ; preds = %32
  %40 = load ptr, ptr %6, align 8, !tbaa !55
  %41 = call i32 @EVP_MD_get_size(ptr noundef %40)
  store i32 %41, ptr %10, align 4, !tbaa !47
  %42 = load i32, ptr %10, align 4, !tbaa !47
  %43 = icmp sle i32 %42, 0
  br i1 %43, label %44, label %45

44:                                               ; preds = %39
  call void @ERR_new()
  call void @ERR_set_debug(ptr noundef @.str, i32 noundef 888, ptr noundef @__func__.pkey_pss_init)
  call void (i32, i32, ptr, ...) @ERR_set_error(i32 noundef 4, i32 noundef 143, ptr noundef null)
  store i32 0, ptr %2, align 4
  store i32 1, ptr %11, align 4
  br label %75

45:                                               ; preds = %39
  %46 = load ptr, ptr %4, align 8, !tbaa !42
  %47 = call i32 @RSA_size(ptr noundef %46)
  %48 = load i32, ptr %10, align 4, !tbaa !47
  %49 = sub nsw i32 %47, %48
  store i32 %49, ptr %9, align 4, !tbaa !47
  %50 = load ptr, ptr %4, align 8, !tbaa !42
  %51 = call i32 @RSA_bits(ptr noundef %50)
  %52 = and i32 %51, 7
  %53 = icmp eq i32 %52, 1
  br i1 %53, label %54, label %57

54:                                               ; preds = %45
  %55 = load i32, ptr %9, align 4, !tbaa !47
  %56 = add nsw i32 %55, -1
  store i32 %56, ptr %9, align 4, !tbaa !47
  br label %57

57:                                               ; preds = %54, %45
  %58 = load i32, ptr %8, align 4, !tbaa !47
  %59 = load i32, ptr %9, align 4, !tbaa !47
  %60 = icmp sgt i32 %58, %59
  br i1 %60, label %61, label %62

61:                                               ; preds = %57
  call void @ERR_new()
  call void @ERR_set_debug(ptr noundef @.str, i32 noundef 895, ptr noundef @__func__.pkey_pss_init)
  call void (i32, i32, ptr, ...) @ERR_set_error(i32 noundef 4, i32 noundef 150, ptr noundef null)
  store i32 0, ptr %2, align 4
  store i32 1, ptr %11, align 4
  br label %75

62:                                               ; preds = %57
  %63 = load i32, ptr %8, align 4, !tbaa !47
  %64 = load ptr, ptr %5, align 8, !tbaa !8
  %65 = getelementptr inbounds nuw %struct.RSA_PKEY_CTX, ptr %64, i32 0, i32 8
  store i32 %63, ptr %65, align 4, !tbaa !30
  %66 = load ptr, ptr %6, align 8, !tbaa !55
  %67 = load ptr, ptr %5, align 8, !tbaa !8
  %68 = getelementptr inbounds nuw %struct.RSA_PKEY_CTX, ptr %67, i32 0, i32 5
  store ptr %66, ptr %68, align 8, !tbaa !36
  %69 = load ptr, ptr %7, align 8, !tbaa !55
  %70 = load ptr, ptr %5, align 8, !tbaa !8
  %71 = getelementptr inbounds nuw %struct.RSA_PKEY_CTX, ptr %70, i32 0, i32 6
  store ptr %69, ptr %71, align 8, !tbaa !37
  %72 = load i32, ptr %8, align 4, !tbaa !47
  %73 = load ptr, ptr %5, align 8, !tbaa !8
  %74 = getelementptr inbounds nuw %struct.RSA_PKEY_CTX, ptr %73, i32 0, i32 7
  store i32 %72, ptr %74, align 8, !tbaa !29
  store i32 1, ptr %2, align 4
  store i32 1, ptr %11, align 4
  br label %75

75:                                               ; preds = %62, %61, %44, %38, %31, %21
  call void @llvm.lifetime.end.p0(i64 4, ptr %10) #8
  call void @llvm.lifetime.end.p0(i64 4, ptr %9) #8
  call void @llvm.lifetime.end.p0(i64 4, ptr %8) #8
  call void @llvm.lifetime.end.p0(i64 8, ptr %7) #8
  call void @llvm.lifetime.end.p0(i64 8, ptr %6) #8
  call void @llvm.lifetime.end.p0(i64 8, ptr %5) #8
  call void @llvm.lifetime.end.p0(i64 8, ptr %4) #8
  %76 = load i32, ptr %2, align 4
  ret i32 %76
}