; Function Attrs: nounwind uwtable
define internal range(i32 0, 2) i32 @pkey_pss_init(ptr noundef readonly captures(none) %0) #1 {
  %2 = alloca ptr, align 8
  %3 = alloca ptr, align 8
  %4 = alloca i32, align 4
  %5 = getelementptr inbounds nuw i8, ptr %0, i64 152
  %6 = load ptr, ptr %5, align 8, !tbaa !29
  call void @llvm.lifetime.start.p0(i64 8, ptr nonnull %2) #9
  call void @llvm.lifetime.start.p0(i64 8, ptr nonnull %3) #9
  call void @llvm.lifetime.start.p0(i64 4, ptr nonnull %4) #9
  %7 = getelementptr inbounds nuw i8, ptr %0, i64 120
  %8 = load ptr, ptr %7, align 8, !tbaa !14
  %9 = load i32, ptr %8, align 8, !tbaa !23
  %10 = icmp eq i32 %9, 912
  br i1 %10, label %11, label %42

11:                                               ; preds = %1
  %12 = getelementptr inbounds nuw i8, ptr %0, i64 136
  %13 = load ptr, ptr %12, align 8, !tbaa !51
  %14 = tail call ptr @EVP_PKEY_get0_RSA(ptr noundef %13) #9
  %15 = getelementptr inbounds nuw i8, ptr %14, i64 128
  %16 = load ptr, ptr %15, align 8, !tbaa !39
  %17 = icmp eq ptr %16, null
  br i1 %17, label %42, label %18

18:                                               ; preds = %11
  %19 = call i32 @ossl_rsa_pss_get_param(ptr noundef nonnull %16, ptr noundef nonnull %2, ptr noundef nonnull %3, ptr noundef nonnull %4) #9
  %.not = icmp eq i32 %19, 0
  br i1 %.not, label %42, label %20

20:                                               ; preds = %18
  %21 = load ptr, ptr %2, align 8, !tbaa !58
  %22 = call i32 @EVP_MD_get_size(ptr noundef %21) #9
  %23 = icmp slt i32 %22, 1
  br i1 %23, label %24, label %25

24:                                               ; preds = %20
  call void @ERR_new() #9
  call void @ERR_set_debug(ptr noundef nonnull @.str, i32 noundef 888, ptr noundef nonnull @__func__.pkey_pss_init) #9
  call void (i32, i32, ptr, ...) @ERR_set_error(i32 noundef 4, i32 noundef 143, ptr noundef null) #9
  br label %42

25:                                               ; preds = %20
  %26 = call i32 @RSA_size(ptr noundef nonnull %14) #9
  %27 = sub i32 %26, %22
  %28 = call i32 @RSA_bits(ptr noundef nonnull %14) #9
  %29 = and i32 %28, 7
  %30 = icmp eq i32 %29, 1
  %31 = sext i1 %30 to i32
  %spec.select = add nsw i32 %27, %31
  %32 = load i32, ptr %4, align 4, !tbaa !52
  %33 = icmp sgt i32 %32, %spec.select
  br i1 %33, label %34, label %35

34:                                               ; preds = %25
  call void @ERR_new() #9
  call void @ERR_set_debug(ptr noundef nonnull @.str, i32 noundef 895, ptr noundef nonnull @__func__.pkey_pss_init) #9
  call void (i32, i32, ptr, ...) @ERR_set_error(i32 noundef 4, i32 noundef 150, ptr noundef null) #9
  br label %42

35:                                               ; preds = %25
  %36 = getelementptr inbounds nuw i8, ptr %6, i64 52
  store i32 %32, ptr %36, align 4, !tbaa !27
  %37 = load ptr, ptr %2, align 8, !tbaa !58
  %38 = getelementptr inbounds nuw i8, ptr %6, i64 32
  store ptr %37, ptr %38, align 8, !tbaa !33
  %39 = load ptr, ptr %3, align 8, !tbaa !58
  %40 = getelementptr inbounds nuw i8, ptr %6, i64 40
  store ptr %39, ptr %40, align 8, !tbaa !34
  %41 = getelementptr inbounds nuw i8, ptr %6, i64 48
  store i32 %32, ptr %41, align 8, !tbaa !26
  br label %42

42:                                               ; preds = %18, %11, %1, %35, %34, %24
  %.0 = phi i32 [ 0, %24 ], [ 0, %34 ], [ 1, %35 ], [ 0, %1 ], [ 1, %11 ], [ 0, %18 ]
  call void @llvm.lifetime.end.p0(i64 4, ptr nonnull %4) #9
  call void @llvm.lifetime.end.p0(i64 8, ptr nonnull %3) #9
  call void @llvm.lifetime.end.p0(i64 8, ptr nonnull %2) #9
  ret i32 %.0
}